target datalayout = "e-m:e-p270:32:32-p271:32:32-p272:64:64-i64:64-i128:128-f80:128-n8:16:32:64-S128"
target triple = "x86_64-pc-linux-gnu"

%struct.cpool = type { %struct.Curl_hash, i64, i64, i64, %struct.curltime, %struct.Curl_llist, ptr, ptr, ptr, ptr, i8 }
%struct.Curl_hash = type { ptr, ptr, ptr, ptr, i64, i64 }
%struct.curltime = type { i64, i32 }
%struct.Curl_llist = type { ptr, ptr, ptr, i64 }
%struct.Curl_easy = type { i32, i64, i64, ptr, %struct.Curl_llist_node, %struct.Curl_llist_node, i32, i32, %struct.Curl_message, %struct.easy_pollset, %struct.Names, ptr, ptr, ptr, ptr, %struct.SingleRequest, %struct.UserDefined, ptr, ptr, ptr, %struct.Progress, %struct.UrlState, ptr, %struct.PureInfo, %struct.curl_tlssessioninfo }
%struct.Curl_llist_node = type { ptr, ptr, ptr, ptr }
%struct.Curl_message = type { %struct.Curl_llist_node, %struct.CURLMsg }
%struct.CURLMsg = type { i32, ptr, %union.anon }
%union.anon = type { ptr }
%struct.easy_pollset = type { [5 x i32], i32, [5 x i8] }
%struct.Names = type { ptr, i32 }
%struct.SingleRequest = type <{ i64, i64, i64, i64, %struct.curltime, i32, i32, i32, i32, i64, i32, i32, i8, i8, [2 x i8], i32, ptr, ptr, %struct.bufq, i64, i64, ptr, ptr, %union.anon.0, ptr, i8, i32, [3 x i8] }>
%struct.bufq = type { ptr, ptr, ptr, ptr, i64, i64, i64, i32 }
%union.anon.0 = type { ptr }
%struct.UserDefined = type <{ ptr, ptr, ptr, ptr, ptr, ptr, i64, i64, i64, ptr, ptr, i64, ptr, ptr, ptr, ptr, ptr, ptr, ptr, ptr, ptr, ptr, ptr, ptr, ptr, ptr, ptr, ptr, ptr, ptr, ptr, ptr, ptr, ptr, ptr, i64, i64, i64, i64, i64, i64, i64, i64, i64, ptr, ptr, %struct.curl_mimepart, ptr, ptr, ptr, i64, %struct.ssl_config_data, %struct.ssl_config_data, ptr, i16, i8, i8, %struct.ssl_general_config, i32, i32, i32, [4 x i8], ptr, ptr, i64, i32, i8, i8, i8, i8, ptr, ptr, ptr, i32, [4 x i8], [74 x ptr], [8 x ptr], i32, i32, i32, [4 x i8], ptr, i32, [4 x i8], ptr, ptr, ptr, ptr, ptr, i32, i32, i32, i32, i32, i32, i32, i32, i64, ptr, ptr, i64, ptr, i64, ptr, ptr, ptr, ptr, i32, i16, i16, i16, i8, i8, i8, i8, i8, i8, i8, i8, i64, [6 x i8] }>
%struct.curl_mimepart = type { ptr, ptr, i32, i32, ptr, ptr, ptr, ptr, ptr, ptr, ptr, ptr, ptr, ptr, ptr, i64, %struct.mime_state, ptr, %struct.mime_encoder_state, i64 }
%struct.mime_state = type { i32, ptr, i64 }
%struct.mime_encoder_state = type { i64, i64, i64, [256 x i8] }
%struct.ssl_config_data = type { %struct.ssl_primary_config, i64, ptr, ptr, ptr, ptr, ptr, ptr, ptr, i16 }
%struct.ssl_primary_config = type { ptr, ptr, ptr, ptr, ptr, ptr, ptr, ptr, ptr, ptr, ptr, ptr, ptr, ptr, i8, i32, i8, i8 }
%struct.ssl_general_config = type { i32 }
%struct.Progress = type { i64, %struct.pgrs_dir, %struct.pgrs_dir, i64, i64, i32, i32, i64, i64, i64, i64, i64, i64, i64, i64, i64, %struct.curltime, %struct.curltime, %struct.curltime, %struct.curltime, %struct.curltime, [6 x i64], [6 x %struct.curltime], i32, i8 }
%struct.pgrs_dir = type { i64, i64, i64, %struct.pgrs_measure }
%struct.pgrs_measure = type { %struct.curltime, i64 }
%struct.UrlState = type { %struct.curltime, i64, i64, %struct.dynbuf, ptr, i64, ptr, i32, i32, i32, ptr, i32, i64, i32, ptr, %struct.digestdata, %struct.digestdata, %struct.auth, %struct.auth, %struct.Curl_async, ptr, i8, %struct.curltime, %struct.Curl_tree, %struct.Curl_llist, [15 x %struct.time_node], ptr, ptr, i64, i64, i64, i64, [32 x i8], i64, ptr, ptr, ptr, %struct.urlpieces, ptr, ptr, ptr, ptr, ptr, i64, %struct.dynbuf, %struct.Curl_llist, [2 x %struct.curl_header], ptr, i32, ptr, ptr, %struct.store_netrc, %struct.dynamically_allocated_data, i8, i8, i8, i8, i32 }
%struct.digestdata = type { ptr, ptr, ptr, ptr, ptr, ptr, i32, i8, i8 }
%struct.auth = type { i64, i64, i64, i8 }
%struct.Curl_async = type { ptr, ptr, ptr, ptr, i32, i32, i8 }
%struct.Curl_tree = type { ptr, ptr, ptr, ptr, %struct.curltime, ptr }
%struct.time_node = type { %struct.Curl_llist_node, %struct.curltime, i32 }
%struct.urlpieces = type { ptr, ptr, ptr, ptr, ptr, ptr, ptr, ptr }
%struct.dynbuf = type { ptr, i64, i64, i64 }
%struct.curl_header = type { ptr, ptr, i64, i64, i32, ptr }
%struct.store_netrc = type { %struct.dynbuf, ptr, i8 }
%struct.dynamically_allocated_data = type { ptr, ptr, ptr, ptr, ptr, ptr, ptr, ptr, ptr, ptr, ptr, ptr, ptr, ptr }
%struct.PureInfo = type { i32, i32, i32, i64, i64, i64, i64, i64, i64, i64, ptr, ptr, i64, i32, %struct.ip_quadruple, i32, ptr, i32, %struct.curl_certinfo, i32, i8 }
%struct.ip_quadruple = type { [46 x i8], [46 x i8], i32, i32 }
%struct.curl_certinfo = type { i32, ptr }
%struct.curl_tlssessioninfo = type { i32, ptr }
%struct.Curl_share = type { i32, i32, i32, ptr, ptr, ptr, %struct.cpool, %struct.Curl_hash, ptr, %struct.PslCache, ptr, ptr }
%struct.PslCache = type { ptr, i64, i8 }
%struct.Curl_multi = type { i32, i32, i32, %struct.Curl_llist, %struct.Curl_llist, %struct.Curl_llist, %struct.Curl_llist, i64, ptr, ptr, ptr, ptr, %struct.Curl_hash, ptr, %struct.PslCache, ptr, ptr, i64, ptr, i64, ptr, i64, %struct.Curl_hash, %struct.Curl_hash, %struct.cpool, i64, i64, ptr, ptr, i64, %struct.curltime, [2 x i32], i32, i32, i8, i8 }
%struct.cpool_bundle = type { %struct.Curl_llist, i64, [1 x ptr] }
%struct.Curl_hash_iterator = type { ptr, i64, ptr }
%struct.Curl_hash_element = type { %struct.Curl_llist_node, ptr, ptr, i64, [1 x i8] }

; Function Attrs: nounwind uwtable
define internal zeroext i1 @cpool_foreach(ptr noundef %0, ptr noundef %1, ptr noundef %2, ptr noundef %3) #0 {
  %5 = alloca i1, align 1
  %6 = alloca ptr, align 8
  %7 = alloca ptr, align 8
  %8 = alloca ptr, align 8
  %9 = alloca ptr, align 8
  %10 = alloca %struct.Curl_hash_iterator, align 8
  %11 = alloca ptr, align 8
  %12 = alloca i32, align 4
  %13 = alloca ptr, align 8
  %14 = alloca ptr, align 8
  %15 = alloca ptr, align 8
  store ptr %0, ptr %6, align 8, !tbaa !99
  store ptr %1, ptr %7, align 8, !tbaa !3
  store ptr %2, ptr %8, align 8, !tbaa !8
  store ptr %3, ptr %9, align 8, !tbaa !8
  call void @llvm.lifetime.start.p0(i64 24, ptr %10) #7
  call void @llvm.lifetime.start.p0(i64 8, ptr %11) #7
  %16 = load ptr, ptr %7, align 8, !tbaa !3
  %17 = icmp ne ptr %16, null
  br i1 %17, label %19, label %18

18:                                               ; preds = %4
  store i1 false, ptr %5, align 1
  store i32 1, ptr %12, align 4
  br label %58

19:                                               ; preds = %4
  %20 = load ptr, ptr %7, align 8, !tbaa !3
  %21 = getelementptr inbounds nuw %struct.cpool, ptr %20, i32 0, i32 0
  call void @Curl_hash_start_iterate(ptr noundef %21, ptr noundef %10)
  %22 = call ptr @Curl_hash_next_element(ptr noundef %10)
  store ptr %22, ptr %11, align 8, !tbaa !136
  br label %23

23:                                               ; preds = %56, %19
  %24 = load ptr, ptr %11, align 8, !tbaa !136
  %25 = icmp ne ptr %24, null
  br i1 %25, label %26, label %57

26:                                               ; preds = %23
  call void @llvm.lifetime.start.p0(i64 8, ptr %13) #7
  call void @llvm.lifetime.start.p0(i64 8, ptr %14) #7
  %27 = load ptr, ptr %11, align 8, !tbaa !136
  %28 = getelementptr inbounds nuw %struct.Curl_hash_element, ptr %27, i32 0, i32 1
  %29 = load ptr, ptr %28, align 8, !tbaa !138
  store ptr %29, ptr %14, align 8, !tbaa !109
  %30 = call ptr @Curl_hash_next_element(ptr noundef %10)
  store ptr %30, ptr %11, align 8, !tbaa !136
  %31 = load ptr, ptr %14, align 8, !tbaa !109
  %32 = getelementptr inbounds nuw %struct.cpool_bundle, ptr %31, i32 0, i32 0
  %33 = call ptr @Curl_llist_head(ptr noundef %32)
  store ptr %33, ptr %13, align 8, !tbaa !125
  br label %34

34:                                               ; preds = %52, %26
  %35 = load ptr, ptr %13, align 8, !tbaa !125
  %36 = icmp ne ptr %35, null
  br i1 %36, label %37, label %53

37:                                               ; preds = %34
  call void @llvm.lifetime.start.p0(i64 8, ptr %15) #7
  %38 = load ptr, ptr %13, align 8, !tbaa !125
  %39 = call ptr @Curl_node_elem(ptr noundef %38)
  store ptr %39, ptr %15, align 8, !tbaa !95
  %40 = load ptr, ptr %13, align 8, !tbaa !125
  %41 = call ptr @Curl_node_next(ptr noundef %40)
  store ptr %41, ptr %13, align 8, !tbaa !125
  %42 = load ptr, ptr %9, align 8, !tbaa !8
  %43 = load ptr, ptr %6, align 8, !tbaa !99
  %44 = load ptr, ptr %15, align 8, !tbaa !95
  %45 = load ptr, ptr %8, align 8, !tbaa !8
  %46 = call i32 %42(ptr noundef %43, ptr noundef %44, ptr noundef %45)
  %47 = icmp eq i32 1, %46
  br i1 %47, label %48, label %49

48:                                               ; preds = %37
  store i1 true, ptr %5, align 1
  store i32 1, ptr %12, align 4
  br label %50

49:                                               ; preds = %37
  store i32 0, ptr %12, align 4
  br label %50

50:                                               ; preds = %49, %48
  call void @llvm.lifetime.end.p0(i64 8, ptr %15) #7
  %51 = load i32, ptr %12, align 4
  switch i32 %51, label %54 [
    i32 0, label %52
  ]

52:                                               ; preds = %50
  br label %34, !llvm.loop !172

53:                                               ; preds = %34
  store i32 0, ptr %12, align 4
  br label %54

54:                                               ; preds = %53, %50
  call void @llvm.lifetime.end.p0(i64 8, ptr %14) #7
  call void @llvm.lifetime.end.p0(i64 8, ptr %13) #7
  %55 = load i32, ptr %12, align 4
  switch i32 %55, label %58 [
    i32 0, label %56
  ]

56:                                               ; preds = %54
  br label %23, !llvm.loop !173

57:                                               ; preds = %23
  store i1 false, ptr %5, align 1
  store i32 1, ptr %12, align 4
  br label %58

58:                                               ; preds = %57, %54, %18
  call void @llvm.lifetime.end.p0(i64 8, ptr %11) #7
  call void @llvm.lifetime.end.p0(i64 24, ptr %10) #7
  %59 = load i1, ptr %5, align 1
  ret i1 %59
}

; Function Attrs: nounwind uwtable
define internal ptr @cpool_get_instance(ptr noundef %0) #0 {
  %2 = alloca ptr, align 8
  %3 = alloca ptr, align 8
  store ptr %0, ptr %3, align 8, !tbaa !99
  %4 = load ptr, ptr %3, align 8, !tbaa !99
  %5 = icmp ne ptr %4, null
  br i1 %5, label %6, label %47

6:                                                ; preds = %1
  %7 = load ptr, ptr %3, align 8, !tbaa !99
  %8 = getelementptr inbounds nuw %struct.Curl_easy, ptr %7, i32 0, i32 13
  %9 = load ptr, ptr %8, align 8, !tbaa !88
  %10 = icmp ne ptr %9, null
  br i1 %10, label %11, label %24

11:                                               ; preds = %6
  %12 = load ptr, ptr %3, align 8, !tbaa !99
  %13 = getelementptr inbounds nuw %struct.Curl_easy, ptr %12, i32 0, i32 13
  %14 = load ptr, ptr %13, align 8, !tbaa !88
  %15 = getelementptr inbounds nuw %struct.Curl_share, ptr %14, i32 0, i32 1
  %16 = load i32, ptr %15, align 4, !tbaa !90
  %17 = and i32 %16, 32
  %18 = icmp ne i32 %17, 0
  br i1 %18, label %19, label %24

19:                                               ; preds = %11
  %20 = load ptr, ptr %3, align 8, !tbaa !99
  %21 = getelementptr inbounds nuw %struct.Curl_easy, ptr %20, i32 0, i32 13
  %22 = load ptr, ptr %21, align 8, !tbaa !88
  %23 = getelementptr inbounds nuw %struct.Curl_share, ptr %22, i32 0, i32 6
  store ptr %23, ptr %2, align 8
  br label %48

24:                                               ; preds = %11, %6
  %25 = load ptr, ptr %3, align 8, !tbaa !99
  %26 = getelementptr inbounds nuw %struct.Curl_easy, ptr %25, i32 0, i32 12
  %27 = load ptr, ptr %26, align 8, !tbaa !105
  %28 = icmp ne ptr %27, null
  br i1 %28, label %29, label %34

29:                                               ; preds = %24
  %30 = load ptr, ptr %3, align 8, !tbaa !99
  %31 = getelementptr inbounds nuw %struct.Curl_easy, ptr %30, i32 0, i32 12
  %32 = load ptr, ptr %31, align 8, !tbaa !105
  %33 = getelementptr inbounds nuw %struct.Curl_multi, ptr %32, i32 0, i32 24
  store ptr %33, ptr %2, align 8
  br label %48

34:                                               ; preds = %24
  %35 = load ptr, ptr %3, align 8, !tbaa !99
  %36 = getelementptr inbounds nuw %struct.Curl_easy, ptr %35, i32 0, i32 11
  %37 = load ptr, ptr %36, align 8, !tbaa !24
  %38 = icmp ne ptr %37, null
  br i1 %38, label %39, label %44

39:                                               ; preds = %34
  %40 = load ptr, ptr %3, align 8, !tbaa !99
  %41 = getelementptr inbounds nuw %struct.Curl_easy, ptr %40, i32 0, i32 11
  %42 = load ptr, ptr %41, align 8, !tbaa !24
  %43 = getelementptr inbounds nuw %struct.Curl_multi, ptr %42, i32 0, i32 24
  store ptr %43, ptr %2, align 8
  br label %48

44:                                               ; preds = %34
  br label %45

45:                                               ; preds = %44
  br label %46

46:                                               ; preds = %45
  br label %47

47:                                               ; preds = %46, %1
  store ptr null, ptr %2, align 8
  br label %48

48:                                               ; preds = %47, %39, %29, %19
  %49 = load ptr, ptr %2, align 8
  ret ptr %49
}

; Function Attrs: nounwind uwtable
define hidden i32 @Curl_cpool_upkeep(ptr noundef %0) #0 {
  %2 = alloca i32, align 4
  %3 = alloca ptr, align 8
  %4 = alloca ptr, align 8
  %5 = alloca %struct.curltime, align 8
  %6 = alloca i32, align 4
  store ptr %0, ptr %3, align 8, !tbaa !8
  call void @llvm.lifetime.start.p0(i64 8, ptr %4) #7
  %7 = load ptr, ptr %3, align 8, !tbaa !8
  %8 = call ptr @cpool_get_instance(ptr noundef %7)
  store ptr %8, ptr %4, align 8, !tbaa !3
  call void @llvm.lifetime.start.p0(i64 16, ptr %5) #7
  %9 = call { i64, i32 } @Curl_now()
  %10 = getelementptr inbounds nuw { i64, i32 }, ptr %5, i32 0, i32 0
  %11 = extractvalue { i64, i32 } %9, 0
  store i64 %11, ptr %10, align 8
  %12 = getelementptr inbounds nuw { i64, i32 }, ptr %5, i32 0, i32 1
  %13 = extractvalue { i64, i32 } %9, 1
  store i32 %13, ptr %12, align 8
  %14 = load ptr, ptr %4, align 8, !tbaa !3
  %15 = icmp ne ptr %14, null
  br i1 %15, label %17, label %16

16:                                               ; preds = %1
  store i32 0, ptr %2, align 4
  store i32 1, ptr %6, align 4
  br label %87

17:                                               ; preds = %1
  br label %18

18:                                               ; preds = %17
  %19 = load ptr, ptr %4, align 8, !tbaa !3
  %20 = icmp ne ptr %19, null
  br i1 %20, label %21, label %48

21:                                               ; preds = %18
  %22 = load ptr, ptr %4, align 8, !tbaa !3
  %23 = getelementptr inbounds nuw %struct.cpool, ptr %22, i32 0, i32 8
  %24 = load ptr, ptr %23, align 8, !tbaa !87
  %25 = icmp ne ptr %24, null
  br i1 %25, label %26, label %39

26:                                               ; preds = %21
  %27 = load ptr, ptr %4, align 8, !tbaa !3
  %28 = getelementptr inbounds nuw %struct.cpool, ptr %27, i32 0, i32 8
  %29 = load ptr, ptr %28, align 8, !tbaa !87
  %30 = getelementptr inbounds nuw %struct.Curl_share, ptr %29, i32 0, i32 1
  %31 = load i32, ptr %30, align 4, !tbaa !90
  %32 = and i32 %31, 32
  %33 = icmp ne i32 %32, 0
  br i1 %33, label %34, label %39

34:                                               ; preds = %26
  %35 = load ptr, ptr %4, align 8, !tbaa !3
  %36 = getelementptr inbounds nuw %struct.cpool, ptr %35, i32 0, i32 6
  %37 = load ptr, ptr %36, align 8, !tbaa !15
  %38 = call i32 @Curl_share_lock(ptr noundef %37, i32 noundef 5, i32 noundef 2)
  br label %39

39:                                               ; preds = %34, %26, %21
  br label %40

40:                                               ; preds = %39
  br label %41

41:                                               ; preds = %40
  br label %42

42:                                               ; preds = %41
  %43 = load ptr, ptr %4, align 8, !tbaa !3
  %44 = getelementptr inbounds nuw %struct.cpool, ptr %43, i32 0, i32 10
  %45 = load i8, ptr %44, align 8
  %46 = and i8 %45, -2
  %47 = or i8 %46, 1
  store i8 %47, ptr %44, align 8
  br label %48

48:                                               ; preds = %42, %18
  br label %49

49:                                               ; preds = %48
  br label %50

50:                                               ; preds = %49
  %51 = load ptr, ptr %3, align 8, !tbaa !8
  %52 = load ptr, ptr %4, align 8, !tbaa !3
  %53 = call zeroext i1 @cpool_foreach(ptr noundef %51, ptr noundef %52, ptr noundef %5, ptr noundef @conn_upkeep)
  br label %54

54:                                               ; preds = %50
  %55 = load ptr, ptr %4, align 8, !tbaa !3
  %56 = icmp ne ptr %55, null
  br i1 %56, label %57, label %84

57:                                               ; preds = %54
  br label %58

58:                                               ; preds = %57
  br label %59

59:                                               ; preds = %58
  br label %60

60:                                               ; preds = %59
  %61 = load ptr, ptr %4, align 8, !tbaa !3
  %62 = getelementptr inbounds nuw %struct.cpool, ptr %61, i32 0, i32 10
  %63 = load i8, ptr %62, align 8
  %64 = and i8 %63, -2
  %65 = or i8 %64, 0
  store i8 %65, ptr %62, align 8
  %66 = load ptr, ptr %4, align 8, !tbaa !3
  %67 = getelementptr inbounds nuw %struct.cpool, ptr %66, i32 0, i32 8
  %68 = load ptr, ptr %67, align 8, !tbaa !87
  %69 = icmp ne ptr %68, null
  br i1 %69, label %70, label %83

70:                                               ; preds = %60
  %71 = load ptr, ptr %4, align 8, !tbaa !3
  %72 = getelementptr inbounds nuw %struct.cpool, ptr %71, i32 0, i32 8
  %73 = load ptr, ptr %72, align 8, !tbaa !87
  %74 = getelementptr inbounds nuw %struct.Curl_share, ptr %73, i32 0, i32 1
  %75 = load i32, ptr %74, align 4, !tbaa !90
  %76 = and i32 %75, 32
  %77 = icmp ne i32 %76, 0
  br i1 %77, label %78, label %83

78:                                               ; preds = %70
  %79 = load ptr, ptr %4, align 8, !tbaa !3
  %80 = getelementptr inbounds nuw %struct.cpool, ptr %79, i32 0, i32 6
  %81 = load ptr, ptr %80, align 8, !tbaa !15
  %82 = call i32 @Curl_share_unlock(ptr noundef %81, i32 noundef 5)
  br label %83

83:                                               ; preds = %78, %70, %60
  br label %84

84:                                               ; preds = %83, %54
  br label %85

85:                                               ; preds = %84
  br label %86

86:                                               ; preds = %85
  store i32 0, ptr %2, align 4
  store i32 1, ptr %6, align 4
  br label %87

87:                                               ; preds = %86, %16
  call void @llvm.lifetime.end.p0(i64 16, ptr %5) #7
  call void @llvm.lifetime.end.p0(i64 8, ptr %4) #7
  %88 = load i32, ptr %2, align 4
  ret i32 %88
}